target datalayout = "e-m:e-p270:32:32-p271:32:32-p272:64:64-i64:64-i128:128-f80:128-n8:16:32:64-S128"
target triple = "x86_64-pc-linux-gnu"

%"struct.llvm::ValueProfRecordClosure" = type { ptr, ptr, ptr, ptr, ptr, ptr, ptr, ptr }
%struct.InstrProfValueData = type { i64, i64 }
%"struct.llvm::ValueProfRecord" = type { i32, i32, [1 x i8] }

; Function Attrs: mustprogress nounwind uwtable
define linkonce_odr hidden noundef i32 @_ZN4llvm28getValueProfRecordHeaderSizeEj(i32 noundef %0) #1 comdat {
  %2 = alloca i32, align 4
  %3 = alloca i32, align 4
  store i32 %0, ptr %2, align 4
  %4 = load i32, ptr %2, align 4
  %5 = zext i32 %4 to i64
  %6 = mul i64 1, %5
  %7 = add i64 8, %6
  %8 = trunc i64 %7 to i32
  store i32 %8, ptr %3, align 4
  %9 = load i32, ptr %3, align 4
  %10 = add i32 %9, 7
  %11 = and i32 %10, -8
  store i32 %11, ptr %3, align 4
  %12 = load i32, ptr %3, align 4
  ret i32 %12
}

; Function Attrs: mustprogress nounwind uwtable
define linkonce_odr hidden noundef ptr @_ZN4llvm27getValueProfRecordValueDataEPNS_15ValueProfRecordE(ptr noundef %0) #1 comdat {
  %2 = alloca ptr, align 8
  store ptr %0, ptr %2, align 8
  %3 = load ptr, ptr %2, align 8
  %4 = load ptr, ptr %2, align 8
  %5 = getelementptr inbounds nuw %"struct.llvm::ValueProfRecord", ptr %4, i32 0, i32 1
  %6 = load i32, ptr %5, align 4
  %7 = call noundef i32 @_ZN4llvm28getValueProfRecordHeaderSizeEj(i32 noundef %6)
  %8 = zext i32 %7 to i64
  %9 = getelementptr inbounds i8, ptr %3, i64 %8
  ret ptr %9
}

; Function Attrs: mustprogress nounwind uwtable
define dso_local void @_ZN4llvm28serializeValueProfRecordFromEPNS_15ValueProfRecordEPNS_22ValueProfRecordClosureEjj(ptr noundef %0, ptr noundef %1, i32 noundef %2, i32 noundef %3) #1 {
  %5 = alloca ptr, align 8
  %6 = alloca ptr, align 8
  %7 = alloca i32, align 4
  %8 = alloca i32, align 4
  %9 = alloca i32, align 4
  %10 = alloca ptr, align 8
  %11 = alloca ptr, align 8
  %12 = alloca i32, align 4
  store ptr %0, ptr %5, align 8
  store ptr %1, ptr %6, align 8
  store i32 %2, ptr %7, align 4
  store i32 %3, ptr %8, align 4
  %13 = load ptr, ptr %6, align 8
  %14 = getelementptr inbounds nuw %"struct.llvm::ValueProfRecordClosure", ptr %13, i32 0, i32 0
  %15 = load ptr, ptr %14, align 8
  store ptr %15, ptr %10, align 8
  %16 = load i32, ptr %7, align 4
  %17 = load ptr, ptr %5, align 8
  %18 = getelementptr inbounds nuw %"struct.llvm::ValueProfRecord", ptr %17, i32 0, i32 0
  store i32 %16, ptr %18, align 4
  %19 = load i32, ptr %8, align 4
  %20 = load ptr, ptr %5, align 8
  %21 = getelementptr inbounds nuw %"struct.llvm::ValueProfRecord", ptr %20, i32 0, i32 1
  store i32 %19, ptr %21, align 4
  %22 = load ptr, ptr %5, align 8
  %23 = call noundef ptr @_ZN4llvm27getValueProfRecordValueDataEPNS_15ValueProfRecordE(ptr noundef %22)
  store ptr %23, ptr %11, align 8
  store i32 0, ptr %9, align 4
  br label %24

24:                                               ; preds = %54, %4
  %25 = load i32, ptr %9, align 4
  %26 = load i32, ptr %8, align 4
  %27 = icmp ult i32 %25, %26
  br i1 %27, label %28, label %57

28:                                               ; preds = %24
  %29 = load ptr, ptr %6, align 8
  %30 = getelementptr inbounds nuw %"struct.llvm::ValueProfRecordClosure", ptr %29, i32 0, i32 4
  %31 = load ptr, ptr %30, align 8
  %32 = load ptr, ptr %10, align 8
  %33 = load i32, ptr %7, align 4
  %34 = load i32, ptr %9, align 4
  %35 = call noundef i32 %31(ptr noundef %32, i32 noundef %33, i32 noundef %34)
  store i32 %35, ptr %12, align 4
  %36 = load i32, ptr %12, align 4
  %37 = trunc i32 %36 to i8
  %38 = load ptr, ptr %5, align 8
  %39 = getelementptr inbounds nuw %"struct.llvm::ValueProfRecord", ptr %38, i32 0, i32 2
  %40 = load i32, ptr %9, align 4
  %41 = zext i32 %40 to i64
  %42 = getelementptr inbounds [1 x i8], ptr %39, i64 0, i64 %41
  store i8 %37, ptr %42, align 1
  %43 = load ptr, ptr %6, align 8
  %44 = getelementptr inbounds nuw %"struct.llvm::ValueProfRecordClosure", ptr %43, i32 0, i32 6
  %45 = load ptr, ptr %44, align 8
  %46 = load ptr, ptr %10, align 8
  %47 = load ptr, ptr %11, align 8
  %48 = load i32, ptr %7, align 4
  %49 = load i32, ptr %9, align 4
  call void %45(ptr noundef %46, ptr noundef %47, i32 noundef %48, i32 noundef %49)
  %50 = load i32, ptr %12, align 4
  %51 = load ptr, ptr %11, align 8
  %52 = zext i32 %50 to i64
  %53 = getelementptr inbounds %struct.InstrProfValueData, ptr %51, i64 %52
  store ptr %53, ptr %11, align 8
  br label %54

54:                                               ; preds = %28
  %55 = load i32, ptr %9, align 4
  %56 = add i32 %55, 1
  store i32 %56, ptr %9, align 4
  br label %24, !llvm.loop !30

57:                                               ; preds = %24
  ret void
}