; Function Attrs: mustprogress nounwind uwtable
define dso_local void @_ZN4llvm28serializeValueProfRecordFromEPNS_15ValueProfRecordEPNS_22ValueProfRecordClosureEjj(ptr noundef initializes((0, 8)) %0, ptr noundef readonly captures(none) %1, i32 noundef %2, i32 noundef %3) local_unnamed_addr #0 {
  %5 = load ptr, ptr %1, align 8
  store i32 %2, ptr %0, align 4
  %6 = getelementptr inbounds nuw i8, ptr %0, i64 4
  store i32 %3, ptr %6, align 4
  %.not = icmp eq i32 %3, 0
  br i1 %.not, label %._crit_edge, label %.lr.ph

.lr.ph:                                           ; preds = %4
  %7 = add i32 %3, 15
  %8 = and i32 %7, -8
  %9 = zext i32 %8 to i64
  %10 = getelementptr inbounds nuw i8, ptr %0, i64 %9
  %11 = getelementptr inbounds nuw i8, ptr %1, i64 32
  %12 = getelementptr inbounds nuw i8, ptr %0, i64 8
  %13 = getelementptr inbounds nuw i8, ptr %1, i64 48
  %wide.trip.count = zext i32 %3 to i64
  br label %14

14:                                               ; preds = %.lr.ph, %14
  %indvars.iv = phi i64 [ 0, %.lr.ph ], [ %indvars.iv.next, %14 ]
  %.02223 = phi ptr [ %10, %.lr.ph ], [ %22, %14 ]
  %15 = load ptr, ptr %11, align 8
  %16 = trunc nuw i64 %indvars.iv to i32
  %17 = tail call noundef i32 %15(ptr noundef %5, i32 noundef %2, i32 noundef %16) #28
  %18 = trunc i32 %17 to i8
  %19 = getelementptr inbounds nuw [1 x i8], ptr %12, i64 0, i64 %indvars.iv
  store i8 %18, ptr %19, align 1
  %20 = load ptr, ptr %13, align 8
  tail call void %20(ptr noundef %5, ptr noundef %.02223, i32 noundef %2, i32 noundef %16) #28
  %21 = zext i32 %17 to i64
  %22 = getelementptr inbounds nuw %struct.InstrProfValueData, ptr %.02223, i64 %21
  %indvars.iv.next = add nuw nsw i64 %indvars.iv, 1
  %exitcond.not = icmp eq i64 %indvars.iv.next, %wide.trip.count
  br i1 %exitcond.not, label %._crit_edge, label %14, !llvm.loop !143

._crit_edge:                                      ; preds = %14, %4
  ret void
}